target datalayout = "e-m:e-p270:32:32-p271:32:32-p272:64:64-i64:64-i128:128-f80:128-n8:16:32:64-S128"
target triple = "x86_64-pc-linux-gnu"

@.str.1 = private unnamed_addr constant [122 x i8] c"generated/home/dtcxzyw/WorkSpace/Projects/compilers/llvm-opt-benchmark/bench/gromacs/gromacs/src/gromacs/fileio/xtcio.cpp\00", align 1
@debug = external global ptr, align 8
@.str.4 = private unnamed_addr constant [62 x i8] c"\0AXTC error: read/write of %s failed, source file %s, line %d\0A\00", align 1
@.str.5 = private unnamed_addr constant [4 x i8] c"box\00", align 1
@.str.6 = private unnamed_addr constant [2 x i8] c"x\00", align 1

; Function Attrs: mustprogress nounwind uwtable
define internal noundef i32 @_ZL9xtc_checkPKcbS0_i(ptr noundef %0, i1 noundef zeroext %1, ptr noundef %2, i32 noundef %3) #2 {
  %5 = alloca i32, align 4
  %6 = alloca ptr, align 8
  %7 = alloca i8, align 1
  %8 = alloca ptr, align 8
  %9 = alloca i32, align 4
  store ptr %0, ptr %6, align 8
  %10 = zext i1 %1 to i8
  store i8 %10, ptr %7, align 1
  store ptr %2, ptr %8, align 8
  store i32 %3, ptr %9, align 4
  %11 = load i8, ptr %7, align 1
  %12 = trunc i8 %11 to i1
  br i1 %12, label %23, label %13

13:                                               ; preds = %4
  %14 = load ptr, ptr @debug, align 8
  %15 = icmp ne ptr %14, null
  br i1 %15, label %16, label %22

16:                                               ; preds = %13
  %17 = load ptr, ptr @debug, align 8
  %18 = load ptr, ptr %6, align 8
  %19 = load ptr, ptr %8, align 8
  %20 = load i32, ptr %9, align 4
  %21 = call i32 (ptr, ptr, ...) @fprintf(ptr noundef %17, ptr noundef @.str.4, ptr noundef %18, ptr noundef %19, i32 noundef %20) #7
  br label %22

22:                                               ; preds = %16, %13
  store i32 0, ptr %5, align 4
  br label %24

23:                                               ; preds = %4
  store i32 1, ptr %5, align 4
  br label %24

24:                                               ; preds = %23, %22
  %25 = load i32, ptr %5, align 4
  ret i32 %25
}

; Function Attrs: mustprogress uwtable
define internal noundef i32 @_ZL7xdr_r2fP3XDRPfb(ptr noundef %0, ptr noundef %1, i1 noundef zeroext %2) #0 {
  %4 = alloca ptr, align 8
  %5 = alloca ptr, align 8
  %6 = alloca i8, align 1
  store ptr %0, ptr %4, align 8
  store ptr %1, ptr %5, align 8
  %7 = zext i1 %2 to i8
  store i8 %7, ptr %6, align 1
  %8 = load ptr, ptr %4, align 8
  %9 = load ptr, ptr %5, align 8
  %10 = call noundef i32 @_Z9xdr_floatP3XDRPf(ptr noundef %8, ptr noundef %9)
  ret i32 %10
}

; Function Attrs: mustprogress uwtable
define internal noundef i32 @_ZL9xtc_coordP3XDRPiPA3_fS3_Pfib(ptr noundef %0, ptr noundef %1, ptr noundef %2, ptr noundef %3, ptr noundef %4, i32 noundef %5, i1 noundef zeroext %6) #0 {
  %8 = alloca i32, align 4
  %9 = alloca ptr, align 8
  %10 = alloca ptr, align 8
  %11 = alloca ptr, align 8
  %12 = alloca ptr, align 8
  %13 = alloca ptr, align 8
  %14 = alloca i32, align 4
  %15 = alloca i8, align 1
  %16 = alloca i32, align 4
  %17 = alloca i32, align 4
  %18 = alloca i32, align 4
  store ptr %0, ptr %9, align 8
  store ptr %1, ptr %10, align 8
  store ptr %2, ptr %11, align 8
  store ptr %3, ptr %12, align 8
  store ptr %4, ptr %13, align 8
  store i32 %5, ptr %14, align 4
  %19 = zext i1 %6 to i8
  store i8 %19, ptr %15, align 1
  store i32 1, ptr %18, align 4
  store i32 0, ptr %16, align 4
  br label %20

20:                                               ; preds = %55, %7
  %21 = load i32, ptr %16, align 4
  %22 = icmp slt i32 %21, 3
  br i1 %22, label %23, label %26

23:                                               ; preds = %20
  %24 = load i32, ptr %18, align 4
  %25 = icmp ne i32 %24, 0
  br label %26

26:                                               ; preds = %23, %20
  %27 = phi i1 [ false, %20 ], [ %25, %23 ]
  br i1 %27, label %28, label %58

28:                                               ; preds = %26
  store i32 0, ptr %17, align 4
  br label %29

29:                                               ; preds = %51, %28
  %30 = load i32, ptr %17, align 4
  %31 = icmp slt i32 %30, 3
  br i1 %31, label %32, label %35

32:                                               ; preds = %29
  %33 = load i32, ptr %18, align 4
  %34 = icmp ne i32 %33, 0
  br label %35

35:                                               ; preds = %32, %29
  %36 = phi i1 [ false, %29 ], [ %34, %32 ]
  br i1 %36, label %37, label %54

37:                                               ; preds = %35
  %38 = load ptr, ptr %9, align 8
  %39 = load ptr, ptr %11, align 8
  %40 = load i32, ptr %16, align 4
  %41 = sext i32 %40 to i64
  %42 = getelementptr inbounds [3 x float], ptr %39, i64 %41
  %43 = load i32, ptr %17, align 4
  %44 = sext i32 %43 to i64
  %45 = getelementptr inbounds [3 x float], ptr %42, i64 0, i64 %44
  %46 = load i8, ptr %15, align 1
  %47 = trunc i8 %46 to i1
  %48 = call noundef i32 @_ZL7xdr_r2fP3XDRPfb(ptr noundef %38, ptr noundef %45, i1 noundef zeroext %47)
  %49 = icmp ne i32 %48, 0
  %50 = call noundef i32 @_ZL9xtc_checkPKcbS0_i(ptr noundef @.str.5, i1 noundef zeroext %49, ptr noundef @.str.1, i32 noundef 150)
  store i32 %50, ptr %18, align 4
  br label %51

51:                                               ; preds = %37
  %52 = load i32, ptr %17, align 4
  %53 = add nsw i32 %52, 1
  store i32 %53, ptr %17, align 4
  br label %29, !llvm.loop !5

54:                                               ; preds = %35
  br label %55

55:                                               ; preds = %54
  %56 = load i32, ptr %16, align 4
  %57 = add nsw i32 %56, 1
  store i32 %57, ptr %16, align 4
  br label %20, !llvm.loop !7

58:                                               ; preds = %26
  %59 = load i32, ptr %18, align 4
  %60 = icmp ne i32 %59, 0
  br i1 %60, label %63, label %61

61:                                               ; preds = %58
  %62 = load i32, ptr %18, align 4
  store i32 %62, ptr %8, align 4
  br label %75

63:                                               ; preds = %58
  %64 = load ptr, ptr %9, align 8
  %65 = load ptr, ptr %12, align 8
  %66 = getelementptr inbounds [3 x float], ptr %65, i64 0
  %67 = getelementptr inbounds [3 x float], ptr %66, i64 0, i64 0
  %68 = load ptr, ptr %10, align 8
  %69 = load ptr, ptr %13, align 8
  %70 = load i32, ptr %14, align 4
  %71 = call noundef i32 @_Z11xdr3dfcoordP3XDRPfPiS1_i(ptr noundef %64, ptr noundef %67, ptr noundef %68, ptr noundef %69, i32 noundef %70)
  %72 = icmp ne i32 %71, 0
  %73 = call noundef i32 @_ZL9xtc_checkPKcbS0_i(ptr noundef @.str.6, i1 noundef zeroext %72, ptr noundef @.str.1, i32 noundef 189)
  store i32 %73, ptr %18, align 4
  %74 = load i32, ptr %18, align 4
  store i32 %74, ptr %8, align 4
  br label %75

75:                                               ; preds = %63, %61
  %76 = load i32, ptr %8, align 4
  ret i32 %76
}

; Function Attrs: mustprogress uwtable
define noundef i32 @_Z9write_xtcP8t_fileioilfPA3_KfS3_f(ptr noundef %0, i32 noundef %1, i64 noundef %2, float noundef %3, ptr noundef %4, ptr noundef %5, float noundef %6) #0 {
  %8 = alloca i32, align 4
  %9 = alloca ptr, align 8
  %10 = alloca i32, align 4
  %11 = alloca i64, align 8
  %12 = alloca float, align 4
  %13 = alloca ptr, align 8
  %14 = alloca ptr, align 8
  %15 = alloca float, align 4
  %16 = alloca i32, align 4
  %17 = alloca ptr, align 8
  %18 = alloca i8, align 1
  %19 = alloca i32, align 4
  store ptr %0, ptr %9, align 8
  store i32 %1, ptr %10, align 4
  store i64 %2, ptr %11, align 8
  store float %3, ptr %12, align 4
  store ptr %4, ptr %13, align 8
  store ptr %5, ptr %14, align 8
  store float %6, ptr %15, align 4
  %20 = load i32, ptr %10, align 4
  %21 = icmp sgt i32 %20, 298261617
  %22 = select i1 %21, i32 2023, i32 1995
  store i32 %22, ptr %16, align 4
  %23 = load ptr, ptr %9, align 8
  %24 = icmp ne ptr %23, null
  br i1 %24, label %26, label %25

25:                                               ; preds = %7
  store i32 1, ptr %8, align 4
  br label %49

26:                                               ; preds = %7
  %27 = load ptr, ptr %9, align 8
  %28 = call noundef ptr @_Z14gmx_fio_getxdrP8t_fileio(ptr noundef %27)
  store ptr %28, ptr %17, align 8
  %29 = load ptr, ptr %17, align 8
  %30 = call noundef i32 @_ZL10xtc_headerP3XDRPiS1_PlPfbPb(ptr noundef %29, ptr noundef %16, ptr noundef %10, ptr noundef %11, ptr noundef %12, i1 noundef zeroext false, ptr noundef %18)
  %31 = icmp eq i32 %30, 0
  br i1 %31, label %32, label %33

32:                                               ; preds = %26
  store i32 0, ptr %8, align 4
  br label %49

33:                                               ; preds = %26
  %34 = load ptr, ptr %17, align 8
  %35 = load ptr, ptr %13, align 8
  %36 = load ptr, ptr %14, align 8
  %37 = load i32, ptr %16, align 4
  %38 = call noundef i32 @_ZL9xtc_coordP3XDRPiPA3_fS3_Pfib(ptr noundef %34, ptr noundef %10, ptr noundef %35, ptr noundef %36, ptr noundef %15, i32 noundef %37, i1 noundef zeroext false)
  store i32 %38, ptr %19, align 4
  %39 = load i32, ptr %19, align 4
  %40 = icmp ne i32 %39, 0
  br i1 %40, label %41, label %47

41:                                               ; preds = %33
  %42 = load ptr, ptr %9, align 8
  %43 = call noundef i32 @_Z13gmx_fio_flushP8t_fileio(ptr noundef %42)
  %44 = icmp ne i32 %43, 0
  br i1 %44, label %45, label %46

45:                                               ; preds = %41
  store i32 0, ptr %19, align 4
  br label %46

46:                                               ; preds = %45, %41
  br label %47

47:                                               ; preds = %46, %33
  %48 = load i32, ptr %19, align 4
  store i32 %48, ptr %8, align 4
  br label %49

49:                                               ; preds = %47, %32, %25
  %50 = load i32, ptr %8, align 4
  ret i32 %50
}