; Function Attrs: mustprogress uwtable
define noundef i32 @_Z9write_xtcP8t_fileioilfPA3_KfS3_f(ptr noundef %0, i32 noundef %1, i64 noundef %2, float noundef %3, ptr noundef %4, ptr noundef %5, float noundef %6) local_unnamed_addr #0 {
  %8 = alloca i32, align 4
  %9 = alloca i64, align 8
  %10 = alloca float, align 4
  %11 = alloca float, align 4
  %12 = alloca i32, align 4
  %13 = alloca i8, align 1
  store i32 %1, ptr %8, align 4
  store i64 %2, ptr %9, align 8
  store float %3, ptr %10, align 4
  store float %6, ptr %11, align 4
  %14 = icmp sgt i32 %1, 298261617
  %15 = select i1 %14, i32 2023, i32 1995
  store i32 %15, ptr %12, align 4
  %.not = icmp eq ptr %0, null
  br i1 %.not, label %_ZL9xtc_coordP3XDRPiPA3_fS3_Pfib.exit.thread, label %16

16:                                               ; preds = %7
  %17 = tail call noundef ptr @_Z14gmx_fio_getxdrP8t_fileio(ptr noundef nonnull %0)
  %18 = call fastcc noundef i32 @_ZL10xtc_headerP3XDRPiS1_PlPfbPb(ptr noundef %17, ptr noundef nonnull %12, ptr noundef nonnull %8, ptr noundef nonnull %9, ptr noundef nonnull %10, ptr noundef nonnull %13)
  %19 = icmp eq i32 %18, 0
  br i1 %19, label %_ZL9xtc_coordP3XDRPiPA3_fS3_Pfib.exit.thread, label %20

20:                                               ; preds = %16
  %21 = load i32, ptr %12, align 4
  br label %.preheader.i

.preheader.i:                                     ; preds = %29, %20
  %indvars.iv29.i = phi i64 [ 0, %20 ], [ %indvars.iv.next30.i, %29 ]
  br label %22

22:                                               ; preds = %_ZL9xtc_checkPKcbS0_i.exit.i, %.preheader.i
  %indvars.iv.i = phi i64 [ 0, %.preheader.i ], [ %indvars.iv.next.i, %_ZL9xtc_checkPKcbS0_i.exit.i ]
  %23 = getelementptr inbounds [3 x float], ptr %4, i64 %indvars.iv29.i, i64 %indvars.iv.i
  %24 = call noundef i32 @_Z9xdr_floatP3XDRPf(ptr noundef %17, ptr noundef %23)
  %.not25.i.not = icmp eq i32 %24, 0
  br i1 %.not25.i.not, label %25, label %_ZL9xtc_checkPKcbS0_i.exit.i

25:                                               ; preds = %22
  %26 = load ptr, ptr @debug, align 8
  %.not.i.i = icmp eq ptr %26, null
  br i1 %.not.i.i, label %_ZL9xtc_coordP3XDRPiPA3_fS3_Pfib.exit.thread, label %27

27:                                               ; preds = %25
  %28 = call i32 (ptr, ptr, ...) @fprintf(ptr noundef nonnull %26, ptr noundef nonnull @.str.4, ptr noundef nonnull @.str.5, ptr noundef nonnull @.str.1, i32 noundef 150) #8
  br label %_ZL9xtc_coordP3XDRPiPA3_fS3_Pfib.exit.thread

_ZL9xtc_checkPKcbS0_i.exit.i:                     ; preds = %22
  %indvars.iv.next.i = add nuw nsw i64 %indvars.iv.i, 1
  %exitcond.not = icmp eq i64 %indvars.iv.next.i, 3
  br i1 %exitcond.not, label %29, label %22, !llvm.loop !5

29:                                               ; preds = %_ZL9xtc_checkPKcbS0_i.exit.i
  %indvars.iv.next30.i = add nuw nsw i64 %indvars.iv29.i, 1
  %exitcond16.not = icmp eq i64 %indvars.iv.next30.i, 3
  br i1 %exitcond16.not, label %30, label %.preheader.i, !llvm.loop !7

30:                                               ; preds = %29
  %31 = call noundef i32 @_Z11xdr3dfcoordP3XDRPfPiS1_i(ptr noundef %17, ptr noundef %5, ptr noundef nonnull %8, ptr noundef nonnull %11, i32 noundef %21)
  %.not.i = icmp eq i32 %31, 0
  br i1 %.not.i, label %32, label %_ZL9xtc_coordP3XDRPiPA3_fS3_Pfib.exit

32:                                               ; preds = %30
  %33 = load ptr, ptr @debug, align 8
  %.not.i22.i = icmp eq ptr %33, null
  br i1 %.not.i22.i, label %_ZL9xtc_coordP3XDRPiPA3_fS3_Pfib.exit.thread, label %34

34:                                               ; preds = %32
  %35 = call i32 (ptr, ptr, ...) @fprintf(ptr noundef nonnull %33, ptr noundef nonnull @.str.4, ptr noundef nonnull @.str.6, ptr noundef nonnull @.str.1, i32 noundef 189) #8
  br label %_ZL9xtc_coordP3XDRPiPA3_fS3_Pfib.exit.thread

_ZL9xtc_coordP3XDRPiPA3_fS3_Pfib.exit:            ; preds = %30
  %36 = call noundef i32 @_Z13gmx_fio_flushP8t_fileio(ptr noundef nonnull %0)
  %.not13 = icmp eq i32 %36, 0
  %spec.select = zext i1 %.not13 to i32
  br label %_ZL9xtc_coordP3XDRPiPA3_fS3_Pfib.exit.thread

_ZL9xtc_coordP3XDRPiPA3_fS3_Pfib.exit.thread:     ; preds = %27, %25, %32, %34, %_ZL9xtc_coordP3XDRPiPA3_fS3_Pfib.exit, %16, %7
  %.09 = phi i32 [ 1, %7 ], [ 0, %16 ], [ %spec.select, %_ZL9xtc_coordP3XDRPiPA3_fS3_Pfib.exit ], [ 0, %34 ], [ 0, %32 ], [ 0, %25 ], [ 0, %27 ]
  ret i32 %.09
}